
test:     file format elf64-x86-64


Disassembly of section .init:

0000000000001000 <_init>:
    1000:	f3 0f 1e fa          	endbr64 
    1004:	48 83 ec 08          	sub    $0x8,%rsp
    1008:	48 8b 05 d9 2f 00 00 	mov    0x2fd9(%rip),%rax        # 3fe8 <__gmon_start__@Base>
    100f:	48 85 c0             	test   %rax,%rax
    1012:	74 02                	je     1016 <_init+0x16>
    1014:	ff d0                	call   *%rax
    1016:	48 83 c4 08          	add    $0x8,%rsp
    101a:	c3                   	ret    

Disassembly of section .plt:

0000000000001020 <printf@plt-0x10>:
    1020:	ff 35 92 2f 00 00    	push   0x2f92(%rip)        # 3fb8 <_GLOBAL_OFFSET_TABLE_+0x8>
    1026:	ff 25 94 2f 00 00    	jmp    *0x2f94(%rip)        # 3fc0 <_GLOBAL_OFFSET_TABLE_+0x10>
    102c:	0f 1f 40 00          	nopl   0x0(%rax)

0000000000001030 <printf@plt>:
    1030:	ff 25 92 2f 00 00    	jmp    *0x2f92(%rip)        # 3fc8 <printf@GLIBC_2.2.5>
    1036:	68 00 00 00 00       	push   $0x0
    103b:	e9 e0 ff ff ff       	jmp    1020 <_init+0x20>

0000000000001040 <_setjmp@plt>:
    1040:	ff 25 8a 2f 00 00    	jmp    *0x2f8a(%rip)        # 3fd0 <_setjmp@GLIBC_2.2.5>
    1046:	68 01 00 00 00       	push   $0x1
    104b:	e9 d0 ff ff ff       	jmp    1020 <_init+0x20>

Disassembly of section .plt.got:

0000000000001050 <__cxa_finalize@plt>:
    1050:	ff 25 a2 2f 00 00    	jmp    *0x2fa2(%rip)        # 3ff8 <__cxa_finalize@GLIBC_2.2.5>
    1056:	66 90                	xchg   %ax,%ax

Disassembly of section .text:

0000000000001060 <_start>:
    1060:	f3 0f 1e fa          	endbr64 
    1064:	31 ed                	xor    %ebp,%ebp
    1066:	49 89 d1             	mov    %rdx,%r9
    1069:	5e                   	pop    %rsi
    106a:	48 89 e2             	mov    %rsp,%rdx
    106d:	48 83 e4 f0          	and    $0xfffffffffffffff0,%rsp
    1071:	50                   	push   %rax
    1072:	54                   	push   %rsp
    1073:	45 31 c0             	xor    %r8d,%r8d
    1076:	31 c9                	xor    %ecx,%ecx
    1078:	48 8d 3d 0f 01 00 00 	lea    0x10f(%rip),%rdi        # 118e <main>
    107f:	ff 15 53 2f 00 00    	call   *0x2f53(%rip)        # 3fd8 <__libc_start_main@GLIBC_2.34>
    1085:	f4                   	hlt    
    1086:	66 2e 0f 1f 84 00 00 	cs nopw 0x0(%rax,%rax,1)
    108d:	00 00 00 

0000000000001090 <deregister_tm_clones>:
    1090:	48 8d 3d 79 2f 00 00 	lea    0x2f79(%rip),%rdi        # 4010 <__TMC_END__>
    1097:	48 8d 05 72 2f 00 00 	lea    0x2f72(%rip),%rax        # 4010 <__TMC_END__>
    109e:	48 39 f8             	cmp    %rdi,%rax
    10a1:	74 15                	je     10b8 <deregister_tm_clones+0x28>
    10a3:	48 8b 05 36 2f 00 00 	mov    0x2f36(%rip),%rax        # 3fe0 <_ITM_deregisterTMCloneTable@Base>
    10aa:	48 85 c0             	test   %rax,%rax
    10ad:	74 09                	je     10b8 <deregister_tm_clones+0x28>
    10af:	ff e0                	jmp    *%rax
    10b1:	0f 1f 80 00 00 00 00 	nopl   0x0(%rax)
    10b8:	c3                   	ret    
    10b9:	0f 1f 80 00 00 00 00 	nopl   0x0(%rax)

00000000000010c0 <register_tm_clones>:
    10c0:	48 8d 3d 49 2f 00 00 	lea    0x2f49(%rip),%rdi        # 4010 <__TMC_END__>
    10c7:	48 8d 35 42 2f 00 00 	lea    0x2f42(%rip),%rsi        # 4010 <__TMC_END__>
    10ce:	48 29 fe             	sub    %rdi,%rsi
    10d1:	48 89 f0             	mov    %rsi,%rax
    10d4:	48 c1 ee 3f          	shr    $0x3f,%rsi
    10d8:	48 c1 f8 03          	sar    $0x3,%rax
    10dc:	48 01 c6             	add    %rax,%rsi
    10df:	48 d1 fe             	sar    %rsi
    10e2:	74 14                	je     10f8 <register_tm_clones+0x38>
    10e4:	48 8b 05 05 2f 00 00 	mov    0x2f05(%rip),%rax        # 3ff0 <_ITM_registerTMCloneTable@Base>
    10eb:	48 85 c0             	test   %rax,%rax
    10ee:	74 08                	je     10f8 <register_tm_clones+0x38>
    10f0:	ff e0                	jmp    *%rax
    10f2:	66 0f 1f 44 00 00    	nopw   0x0(%rax,%rax,1)
    10f8:	c3                   	ret    
    10f9:	0f 1f 80 00 00 00 00 	nopl   0x0(%rax)

0000000000001100 <__do_global_dtors_aux>:
    1100:	f3 0f 1e fa          	endbr64 
    1104:	80 3d 15 2f 00 00 00 	cmpb   $0x0,0x2f15(%rip)        # 4020 <completed.0>
    110b:	75 2b                	jne    1138 <__do_global_dtors_aux+0x38>
    110d:	55                   	push   %rbp
    110e:	48 83 3d e2 2e 00 00 	cmpq   $0x0,0x2ee2(%rip)        # 3ff8 <__cxa_finalize@GLIBC_2.2.5>
    1115:	00 
    1116:	48 89 e5             	mov    %rsp,%rbp
    1119:	74 0c                	je     1127 <__do_global_dtors_aux+0x27>
    111b:	48 8b 3d e6 2e 00 00 	mov    0x2ee6(%rip),%rdi        # 4008 <__dso_handle>
    1122:	e8 29 ff ff ff       	call   1050 <__cxa_finalize@plt>
    1127:	e8 64 ff ff ff       	call   1090 <deregister_tm_clones>
    112c:	c6 05 ed 2e 00 00 01 	movb   $0x1,0x2eed(%rip)        # 4020 <completed.0>
    1133:	5d                   	pop    %rbp
    1134:	c3                   	ret    
    1135:	0f 1f 00             	nopl   (%rax)
    1138:	c3                   	ret    
    1139:	0f 1f 80 00 00 00 00 	nopl   0x0(%rax)

0000000000001140 <frame_dummy>:
    1140:	f3 0f 1e fa          	endbr64 
    1144:	e9 77 ff ff ff       	jmp    10c0 <register_tm_clones>

0000000000001149 <test>:
    1149:	f3 0f 1e fa          	endbr64 
    114d:	55                   	push   %rbp
    114e:	48 89 e5             	mov    %rsp,%rbp
    1151:	48 8d 05 e8 2e 00 00 	lea    0x2ee8(%rip),%rax        # 4040 <buf1>
    1158:	48 89 c7             	mov    %rax,%rdi
    115b:	e8 e0 fe ff ff       	call   1040 <_setjmp@plt>
    1160:	f3 0f 1e fa          	endbr64 
    1164:	85 c0                	test   %eax,%eax
    1166:	75 23                	jne    118b <test+0x42>
    1168:	48 8d 05 d9 2e 00 00 	lea    0x2ed9(%rip),%rax        # 4048 <buf1+0x8>
    116f:	48 8b 00             	mov    (%rax),%rax
    1172:	48 89 c6             	mov    %rax,%rsi
    1175:	48 8d 05 8c 0e 00 00 	lea    0xe8c(%rip),%rax        # 2008 <_IO_stdin_used+0x8>
    117c:	48 89 c7             	mov    %rax,%rdi
    117f:	b8 00 00 00 00       	mov    $0x0,%eax
    1184:	e8 a7 fe ff ff       	call   1030 <printf@plt>
    1189:	eb 01                	jmp    118c <test+0x43>
    118b:	90                   	nop
    118c:	5d                   	pop    %rbp
    118d:	c3                   	ret    

000000000000118e <main>:
    118e:	f3 0f 1e fa          	endbr64 
    1192:	55                   	push   %rbp
    1193:	48 89 e5             	mov    %rsp,%rbp
    1196:	48 83 ec 10          	sub    $0x10,%rsp
    119a:	c7 45 f4 05 00 00 00 	movl   $0x5,-0xc(%rbp)
    11a1:	c7 45 f8 03 00 00 00 	movl   $0x3,-0x8(%rbp)
    11a8:	8b 55 f8             	mov    -0x8(%rbp),%edx
    11ab:	8b 45 f4             	mov    -0xc(%rbp),%eax
    11ae:	89 d6                	mov    %edx,%esi
    11b0:	89 c7                	mov    %eax,%edi
    11b2:	e8 72 00 00 00       	call   1229 <add>
    11b7:	89 45 fc             	mov    %eax,-0x4(%rbp)
    11ba:	8b 4d fc             	mov    -0x4(%rbp),%ecx
    11bd:	8b 55 f8             	mov    -0x8(%rbp),%edx
    11c0:	8b 45 f4             	mov    -0xc(%rbp),%eax
    11c3:	89 c6                	mov    %eax,%esi
    11c5:	48 8d 05 4c 0e 00 00 	lea    0xe4c(%rip),%rax        # 2018 <_IO_stdin_used+0x18>
    11cc:	48 89 c7             	mov    %rax,%rdi
    11cf:	b8 00 00 00 00       	mov    $0x0,%eax
    11d4:	e8 57 fe ff ff       	call   1030 <printf@plt>
    11d9:	48 8d 05 40 2f 00 00 	lea    0x2f40(%rip),%rax        # 4120 <buf2>
    11e0:	48 89 c7             	mov    %rax,%rdi
    11e3:	e8 58 fe ff ff       	call   1040 <_setjmp@plt>
    11e8:	f3 0f 1e fa          	endbr64 
    11ec:	85 c0                	test   %eax,%eax
    11ee:	74 07                	je     11f7 <main+0x69>
    11f0:	b8 00 00 00 00       	mov    $0x0,%eax
    11f5:	eb 30                	jmp    1227 <main+0x99>
    11f7:	48 8d 05 2a 2f 00 00 	lea    0x2f2a(%rip),%rax        # 4128 <buf2+0x8>
    11fe:	48 8b 00             	mov    (%rax),%rax
    1201:	48 89 c6             	mov    %rax,%rsi
    1204:	48 8d 05 fd 0d 00 00 	lea    0xdfd(%rip),%rax        # 2008 <_IO_stdin_used+0x8>
    120b:	48 89 c7             	mov    %rax,%rdi
    120e:	b8 00 00 00 00       	mov    $0x0,%eax
    1213:	e8 18 fe ff ff       	call   1030 <printf@plt>
    1218:	b8 00 00 00 00       	mov    $0x0,%eax
    121d:	e8 27 ff ff ff       	call   1149 <test>
    1222:	b8 00 00 00 00       	mov    $0x0,%eax
    1227:	c9                   	leave  
    1228:	c3                   	ret    

0000000000001229 <add>:
    1229:	48 89 fa             	mov    %rdi,%rdx
    122c:	48 01 f0             	add    %rsi,%rax
    122f:	c3                   	ret    

Disassembly of section .fini:

0000000000001230 <_fini>:
    1230:	f3 0f 1e fa          	endbr64 
    1234:	48 83 ec 08          	sub    $0x8,%rsp
    1238:	48 83 c4 08          	add    $0x8,%rsp
    123c:	c3                   	ret    
